target datalayout = "e-m:e-p270:32:32-p271:32:32-p272:64:64-i64:64-i128:128-f80:128-n8:16:32:64-S128"
target triple = "x86_64-pc-linux-gnu"

%struct.Node = type { i32 }
%struct.IndexInfo = type { i32, i32, i32, [32 x i16], ptr, ptr, ptr, ptr, ptr, ptr, ptr, ptr, ptr, ptr, i8, i8, i8, i8, i8, i8, i8, i8, i8, i32, i32, ptr, ptr }

@CurrentMemoryContext = external global ptr, align 8

; Function Attrs: inlinehint nounwind uwtable
define internal ptr @newNode(i64 noundef %0, i32 noundef %1) #2 {
  %3 = alloca i64, align 8
  %4 = alloca i32, align 4
  %5 = alloca ptr, align 8
  store i64 %0, ptr %3, align 8
  store i32 %1, ptr %4, align 4
  call void @llvm.lifetime.start.p0(i64 8, ptr %5) #6
  %6 = load i64, ptr %3, align 8
  %7 = call ptr @palloc0(i64 noundef %6)
  store ptr %7, ptr %5, align 8
  %8 = load i32, ptr %4, align 4
  %9 = load ptr, ptr %5, align 8
  %10 = getelementptr inbounds nuw %struct.Node, ptr %9, i32 0, i32 0
  store i32 %8, ptr %10, align 4
  %11 = load ptr, ptr %5, align 8
  call void @llvm.lifetime.end.p0(i64 8, ptr %5) #6
  ret ptr %11
}

; Function Attrs: nounwind uwtable
define dso_local ptr @makeIndexInfo(i32 noundef %0, i32 noundef %1, i32 noundef %2, ptr noundef %3, ptr noundef %4, i1 noundef zeroext %5, i1 noundef zeroext %6, i1 noundef zeroext %7, i1 noundef zeroext %8, i1 noundef zeroext %9, i1 noundef zeroext %10) #0 {
  %12 = alloca i32, align 4
  %13 = alloca i32, align 4
  %14 = alloca i32, align 4
  %15 = alloca ptr, align 8
  %16 = alloca ptr, align 8
  %17 = alloca i8, align 1
  %18 = alloca i8, align 1
  %19 = alloca i8, align 1
  %20 = alloca i8, align 1
  %21 = alloca i8, align 1
  %22 = alloca i8, align 1
  %23 = alloca ptr, align 8
  store i32 %0, ptr %12, align 4
  store i32 %1, ptr %13, align 4
  store i32 %2, ptr %14, align 4
  store ptr %3, ptr %15, align 8
  store ptr %4, ptr %16, align 8
  %24 = zext i1 %5 to i8
  store i8 %24, ptr %17, align 1
  %25 = zext i1 %6 to i8
  store i8 %25, ptr %18, align 1
  %26 = zext i1 %7 to i8
  store i8 %26, ptr %19, align 1
  %27 = zext i1 %8 to i8
  store i8 %27, ptr %20, align 1
  %28 = zext i1 %9 to i8
  store i8 %28, ptr %21, align 1
  %29 = zext i1 %10 to i8
  store i8 %29, ptr %22, align 1
  call void @llvm.lifetime.start.p0(i64 8, ptr %23) #6
  %30 = call ptr @newNode(i64 noundef 200, i32 noundef 380)
  store ptr %30, ptr %23, align 8
  %31 = load i32, ptr %12, align 4
  %32 = load ptr, ptr %23, align 8
  %33 = getelementptr inbounds nuw %struct.IndexInfo, ptr %32, i32 0, i32 1
  store i32 %31, ptr %33, align 4
  %34 = load i32, ptr %13, align 4
  %35 = load ptr, ptr %23, align 8
  %36 = getelementptr inbounds nuw %struct.IndexInfo, ptr %35, i32 0, i32 2
  store i32 %34, ptr %36, align 8
  %37 = load i8, ptr %17, align 1, !range !4, !noundef !5
  %38 = trunc i8 %37 to i1
  %39 = load ptr, ptr %23, align 8
  %40 = getelementptr inbounds nuw %struct.IndexInfo, ptr %39, i32 0, i32 14
  %41 = zext i1 %38 to i8
  store i8 %41, ptr %40, align 8
  %42 = load i8, ptr %18, align 1, !range !4, !noundef !5
  %43 = trunc i8 %42 to i1
  %44 = load ptr, ptr %23, align 8
  %45 = getelementptr inbounds nuw %struct.IndexInfo, ptr %44, i32 0, i32 15
  %46 = zext i1 %43 to i8
  store i8 %46, ptr %45, align 1
  %47 = load i8, ptr %19, align 1, !range !4, !noundef !5
  %48 = trunc i8 %47 to i1
  %49 = load ptr, ptr %23, align 8
  %50 = getelementptr inbounds nuw %struct.IndexInfo, ptr %49, i32 0, i32 16
  %51 = zext i1 %48 to i8
  store i8 %51, ptr %50, align 2
  %52 = load ptr, ptr %23, align 8
  %53 = getelementptr inbounds nuw %struct.IndexInfo, ptr %52, i32 0, i32 17
  store i8 0, ptr %53, align 1
  %54 = load ptr, ptr %23, align 8
  %55 = getelementptr inbounds nuw %struct.IndexInfo, ptr %54, i32 0, i32 18
  store i8 0, ptr %55, align 4
  %56 = load i8, ptr %20, align 1, !range !4, !noundef !5
  %57 = trunc i8 %56 to i1
  %58 = load ptr, ptr %23, align 8
  %59 = getelementptr inbounds nuw %struct.IndexInfo, ptr %58, i32 0, i32 19
  %60 = zext i1 %57 to i8
  store i8 %60, ptr %59, align 1
  %61 = load i8, ptr %21, align 1, !range !4, !noundef !5
  %62 = trunc i8 %61 to i1
  %63 = load ptr, ptr %23, align 8
  %64 = getelementptr inbounds nuw %struct.IndexInfo, ptr %63, i32 0, i32 21
  %65 = zext i1 %62 to i8
  store i8 %65, ptr %64, align 1
  %66 = load i8, ptr %22, align 1, !range !4, !noundef !5
  %67 = trunc i8 %66 to i1
  %68 = load ptr, ptr %23, align 8
  %69 = getelementptr inbounds nuw %struct.IndexInfo, ptr %68, i32 0, i32 22
  %70 = zext i1 %67 to i8
  store i8 %70, ptr %69, align 8
  %71 = load ptr, ptr %15, align 8
  %72 = load ptr, ptr %23, align 8
  %73 = getelementptr inbounds nuw %struct.IndexInfo, ptr %72, i32 0, i32 4
  store ptr %71, ptr %73, align 8
  %74 = load ptr, ptr %23, align 8
  %75 = getelementptr inbounds nuw %struct.IndexInfo, ptr %74, i32 0, i32 5
  store ptr null, ptr %75, align 8
  %76 = load ptr, ptr %16, align 8
  %77 = load ptr, ptr %23, align 8
  %78 = getelementptr inbounds nuw %struct.IndexInfo, ptr %77, i32 0, i32 6
  store ptr %76, ptr %78, align 8
  %79 = load ptr, ptr %23, align 8
  %80 = getelementptr inbounds nuw %struct.IndexInfo, ptr %79, i32 0, i32 7
  store ptr null, ptr %80, align 8
  %81 = load ptr, ptr %23, align 8
  %82 = getelementptr inbounds nuw %struct.IndexInfo, ptr %81, i32 0, i32 8
  store ptr null, ptr %82, align 8
  %83 = load ptr, ptr %23, align 8
  %84 = getelementptr inbounds nuw %struct.IndexInfo, ptr %83, i32 0, i32 9
  store ptr null, ptr %84, align 8
  %85 = load ptr, ptr %23, align 8
  %86 = getelementptr inbounds nuw %struct.IndexInfo, ptr %85, i32 0, i32 10
  store ptr null, ptr %86, align 8
  %87 = load ptr, ptr %23, align 8
  %88 = getelementptr inbounds nuw %struct.IndexInfo, ptr %87, i32 0, i32 11
  store ptr null, ptr %88, align 8
  %89 = load ptr, ptr %23, align 8
  %90 = getelementptr inbounds nuw %struct.IndexInfo, ptr %89, i32 0, i32 12
  store ptr null, ptr %90, align 8
  %91 = load ptr, ptr %23, align 8
  %92 = getelementptr inbounds nuw %struct.IndexInfo, ptr %91, i32 0, i32 13
  store ptr null, ptr %92, align 8
  %93 = load ptr, ptr %23, align 8
  %94 = getelementptr inbounds nuw %struct.IndexInfo, ptr %93, i32 0, i32 20
  store i8 0, ptr %94, align 2
  %95 = load ptr, ptr %23, align 8
  %96 = getelementptr inbounds nuw %struct.IndexInfo, ptr %95, i32 0, i32 23
  store i32 0, ptr %96, align 4
  %97 = load i32, ptr %14, align 4
  %98 = load ptr, ptr %23, align 8
  %99 = getelementptr inbounds nuw %struct.IndexInfo, ptr %98, i32 0, i32 24
  store i32 %97, ptr %99, align 8
  %100 = load ptr, ptr %23, align 8
  %101 = getelementptr inbounds nuw %struct.IndexInfo, ptr %100, i32 0, i32 25
  store ptr null, ptr %101, align 8
  %102 = load ptr, ptr @CurrentMemoryContext, align 8
  %103 = load ptr, ptr %23, align 8
  %104 = getelementptr inbounds nuw %struct.IndexInfo, ptr %103, i32 0, i32 26
  store ptr %102, ptr %104, align 8
  %105 = load ptr, ptr %23, align 8
  call void @llvm.lifetime.end.p0(i64 8, ptr %23) #6
  ret ptr %105
}