; Function Attrs: nounwind uwtable
define dso_local noundef ptr @makeIndexInfo(i32 noundef %0, i32 noundef %1, i32 noundef %2, ptr noundef %3, ptr noundef %4, i1 noundef zeroext %5, i1 noundef zeroext %6, i1 noundef zeroext %7, i1 noundef zeroext %8, i1 noundef zeroext %9, i1 noundef zeroext %10) local_unnamed_addr #0 {
  %12 = zext i1 %5 to i8
  %13 = zext i1 %6 to i8
  %14 = zext i1 %7 to i8
  %15 = zext i1 %8 to i8
  %16 = zext i1 %9 to i8
  %17 = zext i1 %10 to i8
  %18 = tail call noundef ptr @palloc0(i64 noundef 200) #7
  store i32 380, ptr %18, align 4
  %19 = getelementptr inbounds nuw i8, ptr %18, i64 4
  store i32 %0, ptr %19, align 4
  %20 = getelementptr inbounds nuw i8, ptr %18, i64 8
  store i32 %1, ptr %20, align 8
  %21 = getelementptr inbounds nuw i8, ptr %18, i64 160
  store i8 %12, ptr %21, align 8
  %22 = getelementptr inbounds nuw i8, ptr %18, i64 161
  store i8 %13, ptr %22, align 1
  %23 = getelementptr inbounds nuw i8, ptr %18, i64 162
  store i8 %14, ptr %23, align 2
  %24 = getelementptr inbounds nuw i8, ptr %18, i64 163
  store i8 0, ptr %24, align 1
  %25 = getelementptr inbounds nuw i8, ptr %18, i64 164
  store i8 0, ptr %25, align 4
  %26 = getelementptr inbounds nuw i8, ptr %18, i64 165
  store i8 %15, ptr %26, align 1
  %27 = getelementptr inbounds nuw i8, ptr %18, i64 167
  store i8 %16, ptr %27, align 1
  %28 = getelementptr inbounds nuw i8, ptr %18, i64 168
  store i8 %17, ptr %28, align 8
  %29 = getelementptr inbounds nuw i8, ptr %18, i64 80
  store ptr %3, ptr %29, align 8
  %30 = getelementptr inbounds nuw i8, ptr %18, i64 88
  store ptr null, ptr %30, align 8
  %31 = getelementptr inbounds nuw i8, ptr %18, i64 96
  store ptr %4, ptr %31, align 8
  %32 = getelementptr inbounds nuw i8, ptr %18, i64 104
  %33 = getelementptr inbounds nuw i8, ptr %18, i64 166
  store i8 0, ptr %33, align 2
  %34 = getelementptr inbounds nuw i8, ptr %18, i64 172
  store i32 0, ptr %34, align 4
  %35 = getelementptr inbounds nuw i8, ptr %18, i64 176
  tail call void @llvm.memset.p0.i64(ptr noundef nonnull align 8 dereferenceable(56) %32, i8 0, i64 56, i1 false)
  store i32 %2, ptr %35, align 8
  %36 = getelementptr inbounds nuw i8, ptr %18, i64 184
  store ptr null, ptr %36, align 8
  %37 = load ptr, ptr @CurrentMemoryContext, align 8
  %38 = getelementptr inbounds nuw i8, ptr %18, i64 192
  store ptr %37, ptr %38, align 8
  ret ptr %18
}